target datalayout = "e-m:e-p270:32:32-p271:32:32-p272:64:64-i64:64-i128:128-f80:128-n8:16:32:64-S128"
target triple = "x86_64-pc-linux-gnu"

%"struct.faiss::IndexPreTransform" = type <{ %"struct.faiss::Index.base", [4 x i8], %"class.std::vector", ptr, i8, [7 x i8] }>
%"struct.faiss::Index.base" = type <{ ptr, i32, [4 x i8], i64, i8, i8, [2 x i8], i32, float }>
%"class.std::vector" = type { %"struct.std::_Vector_base" }
%"struct.std::_Vector_base" = type { %"struct.std::_Vector_base<faiss::VectorTransform *, std::allocator<faiss::VectorTransform *>>::_Vector_impl" }
%"struct.std::_Vector_base<faiss::VectorTransform *, std::allocator<faiss::VectorTransform *>>::_Vector_impl" = type { %"struct.std::_Vector_base<faiss::VectorTransform *, std::allocator<faiss::VectorTransform *>>::_Vector_impl_data" }
%"struct.std::_Vector_base<faiss::VectorTransform *, std::allocator<faiss::VectorTransform *>>::_Vector_impl_data" = type { ptr, ptr, ptr }
%"struct.faiss::IndexIDMapTemplate" = type { %"struct.faiss::Index.base", ptr, i8, %"class.std::vector.3" }
%"class.std::vector.3" = type { %"struct.std::_Vector_base.4" }
%"struct.std::_Vector_base.4" = type { %"struct.std::_Vector_base<long, std::allocator<long>>::_Vector_impl" }
%"struct.std::_Vector_base<long, std::allocator<long>>::_Vector_impl" = type { %"struct.std::_Vector_base<long, std::allocator<long>>::_Vector_impl_data" }
%"struct.std::_Vector_base<long, std::allocator<long>>::_Vector_impl_data" = type { ptr, ptr, ptr }
%"struct.faiss::IndexIVFIndependentQuantizer" = type <{ %"struct.faiss::Index.base", [4 x i8], ptr, ptr, ptr, i8, [7 x i8] }>
%"struct.faiss::IndexRefine" = type { %"struct.faiss::Index.base", ptr, ptr, i8, i8, float }

@_ZTIN5faiss5IndexE = external constant ptr
@_ZTIN5faiss17IndexPreTransformE = external constant ptr
@_ZTIN5faiss8IndexIVFE = external constant ptr
@_ZTIN5faiss18IndexIDMapTemplateINS_5IndexEEE = linkonce_odr constant { ptr, ptr, ptr } { ptr getelementptr inbounds (ptr, ptr @_ZTVN10__cxxabiv120__si_class_type_infoE, i64 2), ptr @_ZTSN5faiss18IndexIDMapTemplateINS_5IndexEEE, ptr @_ZTIN5faiss5IndexE }, comdat, align 8
@_ZTIN5faiss19IndexIDMap2TemplateINS_5IndexEEE = linkonce_odr constant { ptr, ptr, ptr } { ptr getelementptr inbounds (ptr, ptr @_ZTVN10__cxxabiv120__si_class_type_infoE, i64 2), ptr @_ZTSN5faiss19IndexIDMap2TemplateINS_5IndexEEE, ptr @_ZTIN5faiss18IndexIDMapTemplateINS_5IndexEEE }, comdat, align 8
@_ZTIN5faiss28IndexIVFIndependentQuantizerE = external constant ptr
@_ZTIN5faiss11IndexRefineE = external constant ptr

; Function Attrs: mustprogress uwtable
define noundef ptr @_ZN5faiss6ivflib21try_extract_index_ivfEPNS_5IndexE(ptr noundef %0) #4 {
  %2 = alloca ptr, align 8
  store ptr %0, ptr %2, align 8
  %3 = load ptr, ptr %2, align 8
  %4 = call noundef ptr @_ZN5faiss6ivflib21try_extract_index_ivfEPKNS_5IndexE(ptr noundef %3)
  ret ptr %4
}

; Function Attrs: mustprogress uwtable
define noundef ptr @_ZN5faiss6ivflib21try_extract_index_ivfEPKNS_5IndexE(ptr noundef %0) #4 {
  %2 = alloca ptr, align 8
  %3 = alloca ptr, align 8
  %4 = alloca ptr, align 8
  %5 = alloca ptr, align 8
  %6 = alloca ptr, align 8
  %7 = alloca ptr, align 8
  %8 = alloca ptr, align 8
  %9 = alloca ptr, align 8
  store ptr %0, ptr %3, align 8
  %10 = load ptr, ptr %3, align 8
  %11 = icmp eq ptr %10, null
  br i1 %11, label %14, label %12

12:                                               ; preds = %1
  %13 = call ptr @__dynamic_cast(ptr %10, ptr @_ZTIN5faiss5IndexE, ptr @_ZTIN5faiss8IndexIVFE, i64 0) #3
  br label %15

14:                                               ; preds = %1
  br label %15

15:                                               ; preds = %14, %12
  %16 = phi ptr [ %13, %12 ], [ null, %14 ]
  store ptr %16, ptr %4, align 8
  %17 = load ptr, ptr %4, align 8
  %18 = icmp ne ptr %17, null
  br i1 %18, label %19, label %21

19:                                               ; preds = %15
  %20 = load ptr, ptr %4, align 8
  store ptr %20, ptr %2, align 8
  br label %97

21:                                               ; preds = %15
  %22 = load ptr, ptr %3, align 8
  %23 = icmp eq ptr %22, null
  br i1 %23, label %26, label %24

24:                                               ; preds = %21
  %25 = call ptr @__dynamic_cast(ptr %22, ptr @_ZTIN5faiss5IndexE, ptr @_ZTIN5faiss17IndexPreTransformE, i64 0) #3
  br label %27

26:                                               ; preds = %21
  br label %27

27:                                               ; preds = %26, %24
  %28 = phi ptr [ %25, %24 ], [ null, %26 ]
  store ptr %28, ptr %5, align 8
  %29 = load ptr, ptr %5, align 8
  %30 = icmp ne ptr %29, null
  br i1 %30, label %31, label %36

31:                                               ; preds = %27
  %32 = load ptr, ptr %5, align 8
  %33 = getelementptr inbounds %"struct.faiss::IndexPreTransform", ptr %32, i32 0, i32 3
  %34 = load ptr, ptr %33, align 8
  %35 = call noundef ptr @_ZN5faiss6ivflib21try_extract_index_ivfEPNS_5IndexE(ptr noundef %34)
  store ptr %35, ptr %2, align 8
  br label %97

36:                                               ; preds = %27
  %37 = load ptr, ptr %3, align 8
  %38 = icmp eq ptr %37, null
  br i1 %38, label %41, label %39

39:                                               ; preds = %36
  %40 = call ptr @__dynamic_cast(ptr %37, ptr @_ZTIN5faiss5IndexE, ptr @_ZTIN5faiss18IndexIDMapTemplateINS_5IndexEEE, i64 0) #3
  br label %42

41:                                               ; preds = %36
  br label %42

42:                                               ; preds = %41, %39
  %43 = phi ptr [ %40, %39 ], [ null, %41 ]
  store ptr %43, ptr %6, align 8
  %44 = load ptr, ptr %6, align 8
  %45 = icmp ne ptr %44, null
  br i1 %45, label %46, label %51

46:                                               ; preds = %42
  %47 = load ptr, ptr %6, align 8
  %48 = getelementptr inbounds %"struct.faiss::IndexIDMapTemplate", ptr %47, i32 0, i32 1
  %49 = load ptr, ptr %48, align 8
  %50 = call noundef ptr @_ZN5faiss6ivflib21try_extract_index_ivfEPNS_5IndexE(ptr noundef %49)
  store ptr %50, ptr %2, align 8
  br label %97

51:                                               ; preds = %42
  %52 = load ptr, ptr %3, align 8
  %53 = icmp eq ptr %52, null
  br i1 %53, label %56, label %54

54:                                               ; preds = %51
  %55 = call ptr @__dynamic_cast(ptr %52, ptr @_ZTIN5faiss5IndexE, ptr @_ZTIN5faiss19IndexIDMap2TemplateINS_5IndexEEE, i64 0) #3
  br label %57

56:                                               ; preds = %51
  br label %57

57:                                               ; preds = %56, %54
  %58 = phi ptr [ %55, %54 ], [ null, %56 ]
  store ptr %58, ptr %7, align 8
  %59 = load ptr, ptr %7, align 8
  %60 = icmp ne ptr %59, null
  br i1 %60, label %61, label %66

61:                                               ; preds = %57
  %62 = load ptr, ptr %7, align 8
  %63 = getelementptr inbounds %"struct.faiss::IndexIDMapTemplate", ptr %62, i32 0, i32 1
  %64 = load ptr, ptr %63, align 8
  %65 = call noundef ptr @_ZN5faiss6ivflib21try_extract_index_ivfEPNS_5IndexE(ptr noundef %64)
  store ptr %65, ptr %2, align 8
  br label %97

66:                                               ; preds = %57
  %67 = load ptr, ptr %3, align 8
  %68 = icmp eq ptr %67, null
  br i1 %68, label %71, label %69

69:                                               ; preds = %66
  %70 = call ptr @__dynamic_cast(ptr %67, ptr @_ZTIN5faiss5IndexE, ptr @_ZTIN5faiss28IndexIVFIndependentQuantizerE, i64 0) #3
  br label %72

71:                                               ; preds = %66
  br label %72

72:                                               ; preds = %71, %69
  %73 = phi ptr [ %70, %69 ], [ null, %71 ]
  store ptr %73, ptr %8, align 8
  %74 = load ptr, ptr %8, align 8
  %75 = icmp ne ptr %74, null
  br i1 %75, label %76, label %81

76:                                               ; preds = %72
  %77 = load ptr, ptr %8, align 8
  %78 = getelementptr inbounds %"struct.faiss::IndexIVFIndependentQuantizer", ptr %77, i32 0, i32 4
  %79 = load ptr, ptr %78, align 8
  %80 = call noundef ptr @_ZN5faiss6ivflib21try_extract_index_ivfEPNS_5IndexE(ptr noundef %79)
  store ptr %80, ptr %2, align 8
  br label %97

81:                                               ; preds = %72
  %82 = load ptr, ptr %3, align 8
  %83 = icmp eq ptr %82, null
  br i1 %83, label %86, label %84

84:                                               ; preds = %81
  %85 = call ptr @__dynamic_cast(ptr %82, ptr @_ZTIN5faiss5IndexE, ptr @_ZTIN5faiss11IndexRefineE, i64 0) #3
  br label %87

86:                                               ; preds = %81
  br label %87

87:                                               ; preds = %86, %84
  %88 = phi ptr [ %85, %84 ], [ null, %86 ]
  store ptr %88, ptr %9, align 8
  %89 = load ptr, ptr %9, align 8
  %90 = icmp ne ptr %89, null
  br i1 %90, label %91, label %96

91:                                               ; preds = %87
  %92 = load ptr, ptr %9, align 8
  %93 = getelementptr inbounds %"struct.faiss::IndexRefine", ptr %92, i32 0, i32 1
  %94 = load ptr, ptr %93, align 8
  %95 = call noundef ptr @_ZN5faiss6ivflib21try_extract_index_ivfEPNS_5IndexE(ptr noundef %94)
  store ptr %95, ptr %2, align 8
  br label %97

96:                                               ; preds = %87
  store ptr null, ptr %2, align 8
  br label %97

97:                                               ; preds = %96, %91, %76, %61, %46, %31, %19
  %98 = load ptr, ptr %2, align 8
  ret ptr %98
}