; Function Attrs: mustprogress nofree nounwind willreturn memory(read) uwtable
define noundef ptr @_ZN5faiss6ivflib21try_extract_index_ivfEPKNS_5IndexE(ptr noundef readonly %0) local_unnamed_addr #7 {
  %2 = icmp eq ptr %0, null
  br i1 %2, label %.thread45, label %.lr.ph

.lr.ph:                                           ; preds = %1, %tailrecurse.backedge
  %.tr47 = phi ptr [ %.tr.be, %tailrecurse.backedge ], [ %0, %1 ]
  %3 = tail call ptr @__dynamic_cast(ptr nonnull %.tr47, ptr nonnull @_ZTIN5faiss5IndexE, ptr nonnull @_ZTIN5faiss8IndexIVFE, i64 0) #16
  %.not = icmp eq ptr %3, null
  br i1 %.not, label %4, label %.thread45

4:                                                ; preds = %.lr.ph
  %5 = tail call ptr @__dynamic_cast(ptr nonnull %.tr47, ptr nonnull @_ZTIN5faiss5IndexE, ptr nonnull @_ZTIN5faiss17IndexPreTransformE, i64 0) #16
  %.not26 = icmp eq ptr %5, null
  br i1 %.not26, label %9, label %6

6:                                                ; preds = %4
  %7 = getelementptr inbounds i8, ptr %5, i64 64
  br label %tailrecurse.backedge

tailrecurse.backedge:                             ; preds = %6, %11, %15, %19, %23
  %.tr.be.in = phi ptr [ %7, %6 ], [ %12, %11 ], [ %16, %15 ], [ %20, %19 ], [ %24, %23 ]
  %.tr.be = load ptr, ptr %.tr.be.in, align 8
  %8 = icmp eq ptr %.tr.be, null
  br i1 %8, label %.thread45, label %.lr.ph

9:                                                ; preds = %4
  %10 = tail call ptr @__dynamic_cast(ptr nonnull %.tr47, ptr nonnull @_ZTIN5faiss5IndexE, ptr nonnull @_ZTIN5faiss18IndexIDMapTemplateINS_5IndexEEE, i64 0) #16
  %.not27 = icmp eq ptr %10, null
  br i1 %.not27, label %13, label %11

11:                                               ; preds = %9
  %12 = getelementptr inbounds i8, ptr %10, i64 40
  br label %tailrecurse.backedge

13:                                               ; preds = %9
  %14 = tail call ptr @__dynamic_cast(ptr nonnull %.tr47, ptr nonnull @_ZTIN5faiss5IndexE, ptr nonnull @_ZTIN5faiss19IndexIDMap2TemplateINS_5IndexEEE, i64 0) #16
  %.not28 = icmp eq ptr %14, null
  br i1 %.not28, label %17, label %15

15:                                               ; preds = %13
  %16 = getelementptr inbounds i8, ptr %14, i64 40
  br label %tailrecurse.backedge

17:                                               ; preds = %13
  %18 = tail call ptr @__dynamic_cast(ptr nonnull %.tr47, ptr nonnull @_ZTIN5faiss5IndexE, ptr nonnull @_ZTIN5faiss28IndexIVFIndependentQuantizerE, i64 0) #16
  %.not29 = icmp eq ptr %18, null
  br i1 %.not29, label %21, label %19

19:                                               ; preds = %17
  %20 = getelementptr inbounds i8, ptr %18, i64 56
  br label %tailrecurse.backedge

21:                                               ; preds = %17
  %22 = tail call ptr @__dynamic_cast(ptr nonnull %.tr47, ptr nonnull @_ZTIN5faiss5IndexE, ptr nonnull @_ZTIN5faiss11IndexRefineE, i64 0) #16
  %.not30 = icmp eq ptr %22, null
  br i1 %.not30, label %.thread45, label %23

23:                                               ; preds = %21
  %24 = getelementptr inbounds i8, ptr %22, i64 40
  br label %tailrecurse.backedge

.thread45:                                        ; preds = %.lr.ph, %21, %tailrecurse.backedge, %1
  %.0 = phi ptr [ null, %1 ], [ null, %tailrecurse.backedge ], [ null, %21 ], [ %3, %.lr.ph ]
  ret ptr %.0
}